target datalayout = "e-m:e-p270:32:32-p271:32:32-p272:64:64-i64:64-i128:128-f80:128-n8:16:32:64-S128"
target triple = "x86_64-pc-linux-gnu"

%struct.fetch_negotiator = type { ptr, ptr, ptr, ptr, ptr, ptr }
%struct.negotiation_state = type { %struct.prio_queue, i32 }
%struct.prio_queue = type { ptr, i64, ptr, i64, i64, ptr }

; Function Attrs: nounwind uwtable
define internal void @release(ptr noundef %0) #0 {
  %2 = alloca ptr, align 8
  store ptr %0, ptr %2, align 8, !tbaa !4
  %3 = load ptr, ptr %2, align 8, !tbaa !4
  %4 = getelementptr inbounds nuw %struct.fetch_negotiator, ptr %3, i32 0, i32 5
  %5 = load ptr, ptr %4, align 8, !tbaa !17
  %6 = getelementptr inbounds nuw %struct.negotiation_state, ptr %5, i32 0, i32 0
  call void @clear_prio_queue(ptr noundef %6)
  br label %7

7:                                                ; preds = %1
  %8 = load ptr, ptr %2, align 8, !tbaa !4
  %9 = getelementptr inbounds nuw %struct.fetch_negotiator, ptr %8, i32 0, i32 5
  %10 = load ptr, ptr %9, align 8, !tbaa !17
  call void @free(ptr noundef %10) #6
  %11 = load ptr, ptr %2, align 8, !tbaa !4
  %12 = getelementptr inbounds nuw %struct.fetch_negotiator, ptr %11, i32 0, i32 5
  store ptr null, ptr %12, align 8, !tbaa !17
  br label %13

13:                                               ; preds = %7
  ret void
}