; Function Attrs: nounwind uwtable
define internal void @release(ptr noundef captures(none) %0) #0 {
  %2 = getelementptr inbounds nuw i8, ptr %0, i64 40
  %3 = load ptr, ptr %2, align 8, !tbaa !13
  tail call void @clear_prio_queue(ptr noundef %3) #5
  %4 = load ptr, ptr %2, align 8, !tbaa !13
  tail call void @free(ptr noundef %4) #5
  store ptr null, ptr %2, align 8, !tbaa !13
  ret void
}